target datalayout = "e-m:e-p270:32:32-p271:32:32-p272:64:64-i64:64-i128:128-f80:128-n8:16:32:64-S128"
target triple = "x86_64-unknown-linux-gnu"

%"class.icu_75::DateInterval" = type { %"class.icu_75::UObject", double, double }
%"class.icu_75::UObject" = type { ptr }

$_ZN6icu_757UObjectC2Ev = comdat any

$_ZN6icu_757UObjectC2ERKS0_ = comdat any

@_ZZN6icu_7512DateInterval16getStaticClassIDEvE7classID = internal global i8 0, align 1
@_ZTVN6icu_7512DateIntervalE = unnamed_addr constant { [7 x ptr] } { [7 x ptr] [ptr null, ptr @_ZTIN6icu_7512DateIntervalE, ptr @_ZN6icu_7512DateIntervalD1Ev, ptr @_ZN6icu_7512DateIntervalD0Ev, ptr @_ZNK6icu_7512DateInterval17getDynamicClassIDEv, ptr @_ZNK6icu_7512DateIntervaleqERKS0_, ptr @_ZNK6icu_7512DateInterval5cloneEv] }, align 8
@_ZTVN10__cxxabiv120__si_class_type_infoE = external global [0 x ptr]
@_ZTSN6icu_7512DateIntervalE = constant [24 x i8] c"N6icu_7512DateIntervalE\00", align 1
@_ZTIN6icu_757UObjectE = external constant ptr
@_ZTIN6icu_7512DateIntervalE = constant { ptr, ptr, ptr } { ptr getelementptr inbounds (ptr, ptr @_ZTVN10__cxxabiv120__si_class_type_infoE, i64 2), ptr @_ZTSN6icu_7512DateIntervalE, ptr @_ZTIN6icu_757UObjectE }, align 8
@_ZTVN6icu_757UObjectE = external unnamed_addr constant { [5 x ptr] }, align 8

@_ZN6icu_7512DateIntervalC1Edd = unnamed_addr alias void (ptr, double, double), ptr @_ZN6icu_7512DateIntervalC2Edd
@_ZN6icu_7512DateIntervalD1Ev = unnamed_addr alias void (ptr), ptr @_ZN6icu_7512DateIntervalD2Ev
@_ZN6icu_7512DateIntervalC1ERKS0_ = unnamed_addr alias void (ptr, ptr), ptr @_ZN6icu_7512DateIntervalC2ERKS0_

; Function Attrs: mustprogress nounwind uwtable
define noundef ptr @_ZN6icu_7512DateInterval16getStaticClassIDEv() #0 align 2 {
entry:
  ret ptr @_ZZN6icu_7512DateInterval16getStaticClassIDEvE7classID
}

; Function Attrs: mustprogress nounwind uwtable
define noundef ptr @_ZNK6icu_7512DateInterval17getDynamicClassIDEv(ptr noundef nonnull align 8 dereferenceable(24) %this) unnamed_addr #0 align 2 {
entry:
  %this.addr = alloca ptr, align 8
  store ptr %this, ptr %this.addr, align 8
  %call = call noundef ptr @_ZN6icu_7512DateInterval16getStaticClassIDEv()
  ret ptr %call
}

; Function Attrs: mustprogress nounwind uwtable
define void @_ZN6icu_7512DateIntervalC2Edd(ptr noundef nonnull align 8 dereferenceable(24) %this, double noundef %from, double noundef %to) unnamed_addr #0 align 2 {
entry:
  %this.addr = alloca ptr, align 8
  %from.addr = alloca double, align 8
  %to.addr = alloca double, align 8
  store ptr %this, ptr %this.addr, align 8
  store double %from, ptr %from.addr, align 8
  store double %to, ptr %to.addr, align 8
  %this1 = load ptr, ptr %this.addr, align 8
  call void @_ZN6icu_757UObjectC2Ev(ptr noundef nonnull align 8 dereferenceable(8) %this1) #3
  store ptr getelementptr inbounds ({ [7 x ptr] }, ptr @_ZTVN6icu_7512DateIntervalE, i32 0, i32 0, i32 2), ptr %this1, align 8
  %fromDate = getelementptr inbounds %"class.icu_75::DateInterval", ptr %this1, i32 0, i32 1
  %0 = load double, ptr %from.addr, align 8
  store double %0, ptr %fromDate, align 8
  %toDate = getelementptr inbounds %"class.icu_75::DateInterval", ptr %this1, i32 0, i32 2
  %1 = load double, ptr %to.addr, align 8
  store double %1, ptr %toDate, align 8
  ret void
}

; Function Attrs: mustprogress nounwind uwtable
define linkonce_odr void @_ZN6icu_757UObjectC2Ev(ptr noundef nonnull align 8 dereferenceable(8) %this) unnamed_addr #0 comdat align 2 {
entry:
  %this.addr = alloca ptr, align 8
  store ptr %this, ptr %this.addr, align 8
  %this1 = load ptr, ptr %this.addr, align 8
  store ptr getelementptr inbounds ({ [5 x ptr] }, ptr @_ZTVN6icu_757UObjectE, i32 0, i32 0, i32 2), ptr %this1, align 8
  ret void
}

; Function Attrs: mustprogress nounwind uwtable
define void @_ZN6icu_7512DateIntervalD2Ev(ptr noundef nonnull align 8 dereferenceable(24) %this) unnamed_addr #0 align 2 {
entry:
  %this.addr = alloca ptr, align 8
  store ptr %this, ptr %this.addr, align 8
  %this1 = load ptr, ptr %this.addr, align 8
  call void @_ZN6icu_757UObjectD2Ev(ptr noundef nonnull align 8 dereferenceable(8) %this1) #3
  ret void
}

; Function Attrs: nounwind
declare void @_ZN6icu_757UObjectD2Ev(ptr noundef nonnull align 8 dereferenceable(8)) unnamed_addr #1

; Function Attrs: mustprogress nounwind uwtable
define void @_ZN6icu_7512DateIntervalD0Ev(ptr noundef nonnull align 8 dereferenceable(24) %this) unnamed_addr #0 align 2 {
entry:
  %this.addr = alloca ptr, align 8
  store ptr %this, ptr %this.addr, align 8
  %this1 = load ptr, ptr %this.addr, align 8
  call void @_ZN6icu_7512DateIntervalD1Ev(ptr noundef nonnull align 8 dereferenceable(24) %this1) #3
  call void @_ZN6icu_757UMemorydlEPv(ptr noundef %this1) #3
  ret void
}

; Function Attrs: nounwind
declare void @_ZN6icu_757UMemorydlEPv(ptr noundef) #1

; Function Attrs: mustprogress uwtable
define void @_ZN6icu_7512DateIntervalC2ERKS0_(ptr noundef nonnull align 8 dereferenceable(24) %this, ptr noundef nonnull align 8 dereferenceable(24) %other) unnamed_addr #2 align 2 personality ptr @__gxx_personality_v0 {
entry:
  %this.addr = alloca ptr, align 8
  %other.addr = alloca ptr, align 8
  %exn.slot = alloca ptr, align 8
  %ehselector.slot = alloca i32, align 4
  store ptr %this, ptr %this.addr, align 8
  store ptr %other, ptr %other.addr, align 8
  %this1 = load ptr, ptr %this.addr, align 8
  %0 = load ptr, ptr %other.addr, align 8
  call void @_ZN6icu_757UObjectC2ERKS0_(ptr noundef nonnull align 8 dereferenceable(8) %this1, ptr noundef nonnull align 8 dereferenceable(8) %0) #3
  store ptr getelementptr inbounds ({ [7 x ptr] }, ptr @_ZTVN6icu_7512DateIntervalE, i32 0, i32 0, i32 2), ptr %this1, align 8
  %1 = load ptr, ptr %other.addr, align 8
  %call = invoke noundef nonnull align 8 dereferenceable(24) ptr @_ZN6icu_7512DateIntervalaSERKS0_(ptr noundef nonnull align 8 dereferenceable(24) %this1, ptr noundef nonnull align 8 dereferenceable(24) %1)
          to label %invoke.cont unwind label %lpad

invoke.cont:                                      ; preds = %entry
  ret void

lpad:                                             ; preds = %entry
  %2 = landingpad { ptr, i32 }
          cleanup
  %3 = extractvalue { ptr, i32 } %2, 0
  store ptr %3, ptr %exn.slot, align 8
  %4 = extractvalue { ptr, i32 } %2, 1
  store i32 %4, ptr %ehselector.slot, align 4
  call void @_ZN6icu_757UObjectD2Ev(ptr noundef nonnull align 8 dereferenceable(8) %this1) #3
  br label %eh.resume

eh.resume:                                        ; preds = %lpad
  %exn = load ptr, ptr %exn.slot, align 8
  %sel = load i32, ptr %ehselector.slot, align 4
  %lpad.val = insertvalue { ptr, i32 } poison, ptr %exn, 0
  %lpad.val2 = insertvalue { ptr, i32 } %lpad.val, i32 %sel, 1
  resume { ptr, i32 } %lpad.val2
}

; Function Attrs: mustprogress nounwind uwtable
define linkonce_odr void @_ZN6icu_757UObjectC2ERKS0_(ptr noundef nonnull align 8 dereferenceable(8) %this, ptr noundef nonnull align 8 dereferenceable(8) %0) unnamed_addr #0 comdat align 2 {
entry:
  %this.addr = alloca ptr, align 8
  %.addr = alloca ptr, align 8
  store ptr %this, ptr %this.addr, align 8
  store ptr %0, ptr %.addr, align 8
  %this1 = load ptr, ptr %this.addr, align 8
  store ptr getelementptr inbounds ({ [5 x ptr] }, ptr @_ZTVN6icu_757UObjectE, i32 0, i32 0, i32 2), ptr %this1, align 8
  ret void
}

; Function Attrs: mustprogress nounwind uwtable
define noundef nonnull align 8 dereferenceable(24) ptr @_ZN6icu_7512DateIntervalaSERKS0_(ptr noundef nonnull align 8 dereferenceable(24) %this, ptr noundef nonnull align 8 dereferenceable(24) %other) #0 align 2 {
entry:
  %this.addr = alloca ptr, align 8
  %other.addr = alloca ptr, align 8
  store ptr %this, ptr %this.addr, align 8
  store ptr %other, ptr %other.addr, align 8
  %this1 = load ptr, ptr %this.addr, align 8
  %0 = load ptr, ptr %other.addr, align 8
  %cmp = icmp ne ptr %this1, %0
  br i1 %cmp, label %if.then, label %if.end

if.then:                                          ; preds = %entry
  %1 = load ptr, ptr %other.addr, align 8
  %fromDate = getelementptr inbounds %"class.icu_75::DateInterval", ptr %1, i32 0, i32 1
  %2 = load double, ptr %fromDate, align 8
  %fromDate2 = getelementptr inbounds %"class.icu_75::DateInterval", ptr %this1, i32 0, i32 1
  store double %2, ptr %fromDate2, align 8
  %3 = load ptr, ptr %other.addr, align 8
  %toDate = getelementptr inbounds %"class.icu_75::DateInterval", ptr %3, i32 0, i32 2
  %4 = load double, ptr %toDate, align 8
  %toDate3 = getelementptr inbounds %"class.icu_75::DateInterval", ptr %this1, i32 0, i32 2
  store double %4, ptr %toDate3, align 8
  br label %if.end

if.end:                                           ; preds = %if.then, %entry
  ret ptr %this1
}

declare i32 @__gxx_personality_v0(...)

; Function Attrs: mustprogress uwtable
define noundef ptr @_ZNK6icu_7512DateInterval5cloneEv(ptr noundef nonnull align 8 dereferenceable(24) %this) unnamed_addr #2 align 2 personality ptr @__gxx_personality_v0 {
entry:
  %this.addr = alloca ptr, align 8
  %cleanup.cond = alloca i1, align 1
  %exn.slot = alloca ptr, align 8
  %ehselector.slot = alloca i32, align 4
  store ptr %this, ptr %this.addr, align 8
  %this1 = load ptr, ptr %this.addr, align 8
  %call = call noundef ptr @_ZN6icu_757UMemorynwEm(i64 noundef 24) #3
  %new.isnull = icmp eq ptr %call, null
  store i1 false, ptr %cleanup.cond, align 1
  br i1 %new.isnull, label %new.cont, label %new.notnull

new.notnull:                                      ; preds = %entry
  store i1 true, ptr %cleanup.cond, align 1
  invoke void @_ZN6icu_7512DateIntervalC1ERKS0_(ptr noundef nonnull align 8 dereferenceable(24) %call, ptr noundef nonnull align 8 dereferenceable(24) %this1)
          to label %invoke.cont unwind label %lpad

invoke.cont:                                      ; preds = %new.notnull
  br label %new.cont

new.cont:                                         ; preds = %invoke.cont, %entry
  %0 = phi ptr [ %call, %invoke.cont ], [ null, %entry ]
  ret ptr %0

lpad:                                             ; preds = %new.notnull
  %1 = landingpad { ptr, i32 }
          cleanup
  %2 = extractvalue { ptr, i32 } %1, 0
  store ptr %2, ptr %exn.slot, align 8
  %3 = extractvalue { ptr, i32 } %1, 1
  store i32 %3, ptr %ehselector.slot, align 4
  %cleanup.is_active = load i1, ptr %cleanup.cond, align 1
  br i1 %cleanup.is_active, label %cleanup.action, label %cleanup.done

cleanup.action:                                   ; preds = %lpad
  call void @_ZN6icu_757UMemorydlEPv(ptr noundef %call) #3
  br label %cleanup.done

cleanup.done:                                     ; preds = %cleanup.action, %lpad
  br label %eh.resume

eh.resume:                                        ; preds = %cleanup.done
  %exn = load ptr, ptr %exn.slot, align 8
  %sel = load i32, ptr %ehselector.slot, align 4
  %lpad.val = insertvalue { ptr, i32 } poison, ptr %exn, 0
  %lpad.val2 = insertvalue { ptr, i32 } %lpad.val, i32 %sel, 1
  resume { ptr, i32 } %lpad.val2
}

; Function Attrs: nounwind
declare noundef ptr @_ZN6icu_757UMemorynwEm(i64 noundef) #1

; Function Attrs: mustprogress nounwind uwtable
define noundef zeroext i1 @_ZNK6icu_7512DateIntervaleqERKS0_(ptr noundef nonnull align 8 dereferenceable(24) %this, ptr noundef nonnull align 8 dereferenceable(24) %other) unnamed_addr #0 align 2 {
entry:
  %this.addr = alloca ptr, align 8
  %other.addr = alloca ptr, align 8
  store ptr %this, ptr %this.addr, align 8
  store ptr %other, ptr %other.addr, align 8
  %this1 = load ptr, ptr %this.addr, align 8
  %fromDate = getelementptr inbounds %"class.icu_75::DateInterval", ptr %this1, i32 0, i32 1
  %0 = load double, ptr %fromDate, align 8
  %1 = load ptr, ptr %other.addr, align 8
  %fromDate2 = getelementptr inbounds %"class.icu_75::DateInterval", ptr %1, i32 0, i32 1
  %2 = load double, ptr %fromDate2, align 8
  %cmp = fcmp oeq double %0, %2
  br i1 %cmp, label %land.rhs, label %land.end

land.rhs:                                         ; preds = %entry
  %toDate = getelementptr inbounds %"class.icu_75::DateInterval", ptr %this1, i32 0, i32 2
  %3 = load double, ptr %toDate, align 8
  %4 = load ptr, ptr %other.addr, align 8
  %toDate3 = getelementptr inbounds %"class.icu_75::DateInterval", ptr %4, i32 0, i32 2
  %5 = load double, ptr %toDate3, align 8
  %cmp4 = fcmp oeq double %3, %5
  br label %land.end

land.end:                                         ; preds = %land.rhs, %entry
  %6 = phi i1 [ false, %entry ], [ %cmp4, %land.rhs ]
  ret i1 %6
}


!llvm.module.flags = !{!0, !1, !2, !3}

!0 = !{i32 1, !"wchar_size", i32 4}
!1 = !{i32 8, !"PIC Level", i32 2}
!2 = !{i32 7, !"uwtable", i32 2}
!3 = !{i32 7, !"frame-pointer", i32 2}
